; Function Attrs: mustprogress uwtable
define noundef zeroext i1 @_ZNK5arrow12ChunkedArray6EqualsERKSt10shared_ptrIS0_ERKNS_12EqualOptionsE(ptr noundef nonnull align 8 dereferenceable(88) %0, ptr noundef nonnull readonly align 8 captures(none) dereferenceable(16) %1, ptr noundef nonnull align 8 dereferenceable(24) %2) local_unnamed_addr #1 align 2 {
  %4 = load ptr, ptr %1, align 8, !tbaa !115
  %.not = icmp eq ptr %4, null
  br i1 %.not, label %13, label %5

5:                                                ; preds = %3
  %6 = icmp eq ptr %0, %4
  br i1 %6, label %7, label %11

7:                                                ; preds = %5
  %8 = getelementptr inbounds nuw i8, ptr %0, i64 24
  %9 = load ptr, ptr %8, align 8, !tbaa !38
  %10 = tail call fastcc noundef zeroext i1 @_ZN5arrow12_GLOBAL__N_110mayHaveNaNERKNS_8DataTypeE(ptr noundef nonnull align 8 dereferenceable(72) %9)
  br i1 %10, label %11, label %13

11:                                               ; preds = %7, %5
  %12 = tail call noundef zeroext i1 @_ZNK5arrow12ChunkedArray6EqualsERKS0_RKNS_12EqualOptionsE(ptr noundef nonnull align 8 dereferenceable(88) %0, ptr noundef nonnull align 8 dereferenceable(88) %4, ptr noundef nonnull align 8 dereferenceable(24) %2)
  br label %13

13:                                               ; preds = %7, %3, %11
  %.0 = phi i1 [ %12, %11 ], [ false, %3 ], [ true, %7 ]
  ret i1 %.0
}